target datalayout = "e-m:e-p270:32:32-p271:32:32-p272:64:64-i64:64-i128:128-f80:128-n8:16:32:64-S128"
target triple = "x86_64-pc-linux-gnu"

%struct.config_generic = type { ptr, i32, i32, ptr, ptr, i32, i32, i32, i32, i32, i32, i32, i32, i32, ptr, ptr, %struct.dlist_node, %struct.slist_node, %struct.slist_node, ptr, ptr, i32 }
%struct.dlist_node = type { ptr, ptr }
%struct.slist_node = type { ptr }
%struct.slist_head = type { %struct.slist_node }
%struct.guc_stack = type { ptr, i32, i32, i32, i32, i32, i32, i32, %struct.config_var_value, %struct.config_var_value }
%struct.config_var_value = type { %union.config_var_val, ptr }
%union.config_var_val = type { double }

@GUCNestLevel = internal global i32 0, align 4
@guc_stack_list = internal global %struct.slist_head zeroinitializer, align 8
@TopTransactionContext = external global ptr, align 8

; Function Attrs: inlinehint nounwind uwtable
define internal void @slist_push_head(ptr noundef %0, ptr noundef %1) #10 {
  %3 = alloca ptr, align 8
  %4 = alloca ptr, align 8
  store ptr %0, ptr %3, align 8
  store ptr %1, ptr %4, align 8
  %5 = load ptr, ptr %3, align 8
  %6 = getelementptr inbounds nuw %struct.slist_head, ptr %5, i32 0, i32 0
  %7 = getelementptr inbounds nuw %struct.slist_node, ptr %6, i32 0, i32 0
  %8 = load ptr, ptr %7, align 8
  %9 = load ptr, ptr %4, align 8
  %10 = getelementptr inbounds nuw %struct.slist_node, ptr %9, i32 0, i32 0
  store ptr %8, ptr %10, align 8
  %11 = load ptr, ptr %4, align 8
  %12 = load ptr, ptr %3, align 8
  %13 = getelementptr inbounds nuw %struct.slist_head, ptr %12, i32 0, i32 0
  %14 = getelementptr inbounds nuw %struct.slist_node, ptr %13, i32 0, i32 0
  store ptr %11, ptr %14, align 8
  ret void
}

; Function Attrs: nounwind uwtable
define internal void @push_old_value(ptr noundef %0, i32 noundef %1) #0 {
  %3 = alloca ptr, align 8
  %4 = alloca i32, align 4
  %5 = alloca ptr, align 8
  %6 = alloca i32, align 4
  store ptr %0, ptr %3, align 8
  store i32 %1, ptr %4, align 4
  call void @llvm.lifetime.start.p0(i64 8, ptr %5) #16
  %7 = load i32, ptr @GUCNestLevel, align 4
  %8 = icmp eq i32 %7, 0
  br i1 %8, label %9, label %10

9:                                                ; preds = %2
  store i32 1, ptr %6, align 4
  br label %111

10:                                               ; preds = %2
  %11 = load ptr, ptr %3, align 8
  %12 = getelementptr inbounds nuw %struct.config_generic, ptr %11, i32 0, i32 14
  %13 = load ptr, ptr %12, align 8
  store ptr %13, ptr %5, align 8
  %14 = load ptr, ptr %5, align 8
  %15 = icmp ne ptr %14, null
  br i1 %15, label %16, label %60

16:                                               ; preds = %10
  %17 = load ptr, ptr %5, align 8
  %18 = getelementptr inbounds nuw %struct.guc_stack, ptr %17, i32 0, i32 1
  %19 = load i32, ptr %18, align 8
  %20 = load i32, ptr @GUCNestLevel, align 4
  %21 = icmp sge i32 %19, %20
  br i1 %21, label %22, label %60

22:                                               ; preds = %16
  %23 = load i32, ptr %4, align 4
  switch i32 %23, label %59 [
    i32 0, label %24
    i32 1, label %36
    i32 2, label %58
  ]

24:                                               ; preds = %22
  %25 = load ptr, ptr %5, align 8
  %26 = getelementptr inbounds nuw %struct.guc_stack, ptr %25, i32 0, i32 2
  %27 = load i32, ptr %26, align 4
  %28 = icmp eq i32 %27, 3
  br i1 %28, label %29, label %33

29:                                               ; preds = %24
  %30 = load ptr, ptr %3, align 8
  %31 = load ptr, ptr %5, align 8
  %32 = getelementptr inbounds nuw %struct.guc_stack, ptr %31, i32 0, i32 9
  call void @discard_stack_value(ptr noundef %30, ptr noundef %32)
  br label %33

33:                                               ; preds = %29, %24
  %34 = load ptr, ptr %5, align 8
  %35 = getelementptr inbounds nuw %struct.guc_stack, ptr %34, i32 0, i32 2
  store i32 1, ptr %35, align 4
  br label %59

36:                                               ; preds = %22
  %37 = load ptr, ptr %5, align 8
  %38 = getelementptr inbounds nuw %struct.guc_stack, ptr %37, i32 0, i32 2
  %39 = load i32, ptr %38, align 4
  %40 = icmp eq i32 %39, 1
  br i1 %40, label %41, label %57

41:                                               ; preds = %36
  %42 = load ptr, ptr %3, align 8
  %43 = getelementptr inbounds nuw %struct.config_generic, ptr %42, i32 0, i32 10
  %44 = load i32, ptr %43, align 4
  %45 = load ptr, ptr %5, align 8
  %46 = getelementptr inbounds nuw %struct.guc_stack, ptr %45, i32 0, i32 5
  store i32 %44, ptr %46, align 8
  %47 = load ptr, ptr %3, align 8
  %48 = getelementptr inbounds nuw %struct.config_generic, ptr %47, i32 0, i32 12
  %49 = load i32, ptr %48, align 4
  %50 = load ptr, ptr %5, align 8
  %51 = getelementptr inbounds nuw %struct.guc_stack, ptr %50, i32 0, i32 7
  store i32 %49, ptr %51, align 8
  %52 = load ptr, ptr %3, align 8
  %53 = load ptr, ptr %5, align 8
  %54 = getelementptr inbounds nuw %struct.guc_stack, ptr %53, i32 0, i32 9
  call void @set_stack_value(ptr noundef %52, ptr noundef %54)
  %55 = load ptr, ptr %5, align 8
  %56 = getelementptr inbounds nuw %struct.guc_stack, ptr %55, i32 0, i32 2
  store i32 3, ptr %56, align 4
  br label %57

57:                                               ; preds = %41, %36
  br label %59

58:                                               ; preds = %22
  br label %59

59:                                               ; preds = %22, %58, %57, %33
  store i32 1, ptr %6, align 4
  br label %111

60:                                               ; preds = %16, %10
  %61 = load ptr, ptr @TopTransactionContext, align 8
  %62 = call ptr @MemoryContextAllocZero(ptr noundef %61, i64 noundef 72)
  store ptr %62, ptr %5, align 8
  %63 = load ptr, ptr %3, align 8
  %64 = getelementptr inbounds nuw %struct.config_generic, ptr %63, i32 0, i32 14
  %65 = load ptr, ptr %64, align 8
  %66 = load ptr, ptr %5, align 8
  %67 = getelementptr inbounds nuw %struct.guc_stack, ptr %66, i32 0, i32 0
  store ptr %65, ptr %67, align 8
  %68 = load i32, ptr @GUCNestLevel, align 4
  %69 = load ptr, ptr %5, align 8
  %70 = getelementptr inbounds nuw %struct.guc_stack, ptr %69, i32 0, i32 1
  store i32 %68, ptr %70, align 8
  %71 = load i32, ptr %4, align 4
  switch i32 %71, label %81 [
    i32 0, label %72
    i32 1, label %75
    i32 2, label %78
  ]

72:                                               ; preds = %60
  %73 = load ptr, ptr %5, align 8
  %74 = getelementptr inbounds nuw %struct.guc_stack, ptr %73, i32 0, i32 2
  store i32 1, ptr %74, align 4
  br label %81

75:                                               ; preds = %60
  %76 = load ptr, ptr %5, align 8
  %77 = getelementptr inbounds nuw %struct.guc_stack, ptr %76, i32 0, i32 2
  store i32 2, ptr %77, align 4
  br label %81

78:                                               ; preds = %60
  %79 = load ptr, ptr %5, align 8
  %80 = getelementptr inbounds nuw %struct.guc_stack, ptr %79, i32 0, i32 2
  store i32 0, ptr %80, align 4
  br label %81

81:                                               ; preds = %60, %78, %75, %72
  %82 = load ptr, ptr %3, align 8
  %83 = getelementptr inbounds nuw %struct.config_generic, ptr %82, i32 0, i32 8
  %84 = load i32, ptr %83, align 4
  %85 = load ptr, ptr %5, align 8
  %86 = getelementptr inbounds nuw %struct.guc_stack, ptr %85, i32 0, i32 3
  store i32 %84, ptr %86, align 8
  %87 = load ptr, ptr %3, align 8
  %88 = getelementptr inbounds nuw %struct.config_generic, ptr %87, i32 0, i32 10
  %89 = load i32, ptr %88, align 4
  %90 = load ptr, ptr %5, align 8
  %91 = getelementptr inbounds nuw %struct.guc_stack, ptr %90, i32 0, i32 4
  store i32 %89, ptr %91, align 4
  %92 = load ptr, ptr %3, align 8
  %93 = getelementptr inbounds nuw %struct.config_generic, ptr %92, i32 0, i32 12
  %94 = load i32, ptr %93, align 4
  %95 = load ptr, ptr %5, align 8
  %96 = getelementptr inbounds nuw %struct.guc_stack, ptr %95, i32 0, i32 6
  store i32 %94, ptr %96, align 4
  %97 = load ptr, ptr %3, align 8
  %98 = load ptr, ptr %5, align 8
  %99 = getelementptr inbounds nuw %struct.guc_stack, ptr %98, i32 0, i32 8
  call void @set_stack_value(ptr noundef %97, ptr noundef %99)
  %100 = load ptr, ptr %3, align 8
  %101 = getelementptr inbounds nuw %struct.config_generic, ptr %100, i32 0, i32 14
  %102 = load ptr, ptr %101, align 8
  %103 = icmp eq ptr %102, null
  br i1 %103, label %104, label %107

104:                                              ; preds = %81
  %105 = load ptr, ptr %3, align 8
  %106 = getelementptr inbounds nuw %struct.config_generic, ptr %105, i32 0, i32 17
  call void @slist_push_head(ptr noundef @guc_stack_list, ptr noundef %106)
  br label %107

107:                                              ; preds = %104, %81
  %108 = load ptr, ptr %5, align 8
  %109 = load ptr, ptr %3, align 8
  %110 = getelementptr inbounds nuw %struct.config_generic, ptr %109, i32 0, i32 14
  store ptr %108, ptr %110, align 8
  store i32 0, ptr %6, align 4
  br label %111

111:                                              ; preds = %107, %59, %9
  call void @llvm.lifetime.end.p0(i64 8, ptr %5) #16
  %112 = load i32, ptr %6, align 4
  switch i32 %112, label %114 [
    i32 0, label %113
    i32 1, label %113
  ]

113:                                              ; preds = %111, %111
  ret void

114:                                              ; preds = %111
  unreachable
}