; Function Attrs: nounwind uwtable
define internal fastcc void @push_old_value(ptr noundef %0, i32 noundef %1) unnamed_addr #0 {
  %3 = load i32, ptr @GUCNestLevel, align 4
  %4 = icmp eq i32 %3, 0
  br i1 %4, label %57, label %5

5:                                                ; preds = %2
  %6 = getelementptr inbounds nuw i8, ptr %0, i64 72
  %7 = load ptr, ptr %6, align 8
  %.not = icmp eq ptr %7, null
  br i1 %.not, label %31, label %8

8:                                                ; preds = %5
  %9 = getelementptr inbounds nuw i8, ptr %7, i64 8
  %10 = load i32, ptr %9, align 8
  %.not35 = icmp slt i32 %10, %3
  br i1 %.not35, label %31, label %11

11:                                               ; preds = %8
  switch i32 %1, label %57 [
    i32 0, label %12
    i32 1, label %19
  ]

12:                                               ; preds = %11
  %13 = getelementptr inbounds nuw i8, ptr %7, i64 12
  %14 = load i32, ptr %13, align 4
  %15 = icmp eq i32 %14, 3
  br i1 %15, label %16, label %18

16:                                               ; preds = %12
  %17 = getelementptr inbounds nuw i8, ptr %7, i64 56
  tail call fastcc void @discard_stack_value(ptr noundef nonnull %0, ptr noundef %17)
  br label %18

18:                                               ; preds = %16, %12
  store i32 1, ptr %13, align 4
  br label %57

19:                                               ; preds = %11
  %20 = getelementptr inbounds nuw i8, ptr %7, i64 12
  %21 = load i32, ptr %20, align 4
  %22 = icmp eq i32 %21, 1
  br i1 %22, label %23, label %57

23:                                               ; preds = %19
  %24 = getelementptr inbounds nuw i8, ptr %0, i64 52
  %25 = load i32, ptr %24, align 4
  %26 = getelementptr inbounds nuw i8, ptr %7, i64 24
  store i32 %25, ptr %26, align 8
  %27 = getelementptr inbounds nuw i8, ptr %0, i64 60
  %28 = load i32, ptr %27, align 4
  %29 = getelementptr inbounds nuw i8, ptr %7, i64 32
  store i32 %28, ptr %29, align 8
  %30 = getelementptr inbounds nuw i8, ptr %7, i64 56
  tail call fastcc void @set_stack_value(ptr noundef nonnull %0, ptr noundef nonnull %30)
  store i32 3, ptr %20, align 4
  br label %57

31:                                               ; preds = %8, %5
  %32 = load ptr, ptr @TopTransactionContext, align 8
  %33 = tail call ptr @MemoryContextAllocZero(ptr noundef %32, i64 noundef 72) #29
  %34 = load ptr, ptr %6, align 8
  store ptr %34, ptr %33, align 8
  %35 = load i32, ptr @GUCNestLevel, align 4
  %36 = getelementptr inbounds nuw i8, ptr %33, i64 8
  store i32 %35, ptr %36, align 8
  %37 = icmp ult i32 %1, 3
  br i1 %37, label %switch.lookup, label %40

switch.lookup:                                    ; preds = %31
  %38 = zext nneg i32 %1 to i64
  %switch.gep = getelementptr inbounds nuw [3 x i32], ptr @switch.table.push_old_value, i64 0, i64 %38
  %switch.load = load i32, ptr %switch.gep, align 4
  %39 = getelementptr inbounds nuw i8, ptr %33, i64 12
  store i32 %switch.load, ptr %39, align 4
  br label %40

40:                                               ; preds = %31, %switch.lookup
  %41 = getelementptr inbounds nuw i8, ptr %0, i64 44
  %42 = load i32, ptr %41, align 4
  %43 = getelementptr inbounds nuw i8, ptr %33, i64 16
  store i32 %42, ptr %43, align 8
  %44 = getelementptr inbounds nuw i8, ptr %0, i64 52
  %45 = load i32, ptr %44, align 4
  %46 = getelementptr inbounds nuw i8, ptr %33, i64 20
  store i32 %45, ptr %46, align 4
  %47 = getelementptr inbounds nuw i8, ptr %0, i64 60
  %48 = load i32, ptr %47, align 4
  %49 = getelementptr inbounds nuw i8, ptr %33, i64 28
  store i32 %48, ptr %49, align 4
  %50 = getelementptr inbounds nuw i8, ptr %33, i64 40
  tail call fastcc void @set_stack_value(ptr noundef nonnull %0, ptr noundef nonnull %50)
  %51 = load ptr, ptr %6, align 8
  %52 = icmp eq ptr %51, null
  br i1 %52, label %53, label %56

53:                                               ; preds = %40
  %54 = getelementptr inbounds nuw i8, ptr %0, i64 104
  %55 = load ptr, ptr @guc_stack_list, align 8
  store ptr %55, ptr %54, align 8
  store ptr %54, ptr @guc_stack_list, align 8
  br label %56

56:                                               ; preds = %53, %40
  store ptr %33, ptr %6, align 8
  br label %57

57:                                               ; preds = %11, %18, %23, %19, %2, %56
  ret void
}